#include <math.h>
#include <stdio.h>
#include <stdlib.h>
#include <string.h>

int main()
{
  int a[300],m1,m2,i,j,m0;
  char c;
  j=0;
  for(i=0;i<300;i++)
   {scanf("%d",&a[i]);
    scanf("%c",&c);
    j=j+1;
    if(c!=',') i=300;
   }
  m1=a[0];
  m2=-1;
  for(i=1;i<j;i++)
     {if(m2<a[i]&&a[i]<m1)
       m2=a[i];
      else if(a[i]>m1)
      {m0=m1;
       m1=a[i];
       m2=m0;
      }
     }
  if(m2==-1) printf("No");
  else printf("%d",m2);
}